target datalayout = "e-m:e-p270:32:32-p271:32:32-p272:64:64-i64:64-i128:128-f80:128-n8:16:32:64-S128"
target triple = "x86_64-unknown-linux-gnu"

%"class.std::shared_ptr" = type { %"class.std::__shared_ptr" }
%"class.std::__shared_ptr" = type { ptr, %"class.std::__shared_count" }
%"class.std::__shared_count" = type { ptr }
%"class.absl::lts_20230802::AnyInvocable" = type { %"class.absl::lts_20230802::internal_any_invocable::Impl" }
%"class.absl::lts_20230802::internal_any_invocable::Impl" = type { %"class.absl::lts_20230802::internal_any_invocable::CoreImpl" }
%"class.absl::lts_20230802::internal_any_invocable::CoreImpl" = type { %"union.absl::lts_20230802::internal_any_invocable::TypeErasedState", ptr, ptr }
%"union.absl::lts_20230802::internal_any_invocable::TypeErasedState" = type { %struct.anon }
%struct.anon = type { ptr, i64 }
%"class.grpc_event_engine::experimental::PollEventHandle" = type { %"class.grpc_event_engine::experimental::EventHandle", %"class.absl::lts_20230802::Mutex", %"struct.std::atomic.0", i32, i32, %"class.grpc_event_engine::experimental::PollPoller::HandlesList", %"class.grpc_event_engine::experimental::PollPoller::HandlesList", ptr, %"class.std::shared_ptr", i8, i8, i8, i8, i8, i32, %"class.absl::lts_20230802::Status", %"class.grpc_event_engine::experimental::AnyInvocableClosure", ptr, ptr, ptr, [8 x i8] }
%"class.grpc_event_engine::experimental::EventHandle" = type { ptr }
%"class.absl::lts_20230802::Mutex" = type { %"struct.std::atomic" }
%"struct.std::atomic" = type { %"struct.std::__atomic_base" }
%"struct.std::__atomic_base" = type { i64 }
%"struct.std::atomic.0" = type { %"struct.std::__atomic_base.1" }
%"struct.std::__atomic_base.1" = type { i32 }
%"class.grpc_event_engine::experimental::PollPoller::HandlesList" = type { ptr, ptr, ptr }
%"class.absl::lts_20230802::Status" = type { i64 }
%"class.grpc_event_engine::experimental::AnyInvocableClosure" = type { %"class.grpc_event_engine::experimental::EventEngine::Closure", [8 x i8], %"class.absl::lts_20230802::AnyInvocable" }
%"class.grpc_event_engine::experimental::EventEngine::Closure" = type { ptr }

; Function Attrs: mustprogress nounwind uwtable
define linkonce_odr void @_ZN17grpc_event_engine12experimental15PollEventHandle10SetWatchedEi(ptr noundef nonnull align 16 dereferenceable(200) %this, i32 noundef %watch_mask) #4 comdat align 2 {
entry:
  %this.addr = alloca ptr, align 8
  %watch_mask.addr = alloca i32, align 4
  store ptr %this, ptr %this.addr, align 8
  store i32 %watch_mask, ptr %watch_mask.addr, align 4
  %this1 = load ptr, ptr %this.addr, align 8
  %0 = load i32, ptr %watch_mask.addr, align 4
  %watch_mask_ = getelementptr inbounds %"class.grpc_event_engine::experimental::PollEventHandle", ptr %this1, i32 0, i32 14
  store i32 %0, ptr %watch_mask_, align 16
  ret void
}

; Function Attrs: mustprogress nounwind uwtable
define linkonce_odr void @_ZN17grpc_event_engine12experimental15PollEventHandle3RefEv(ptr noundef nonnull align 16 dereferenceable(200) %this) #4 comdat align 2 {
entry:
  %this.addr.i = alloca ptr, align 8
  %__i.addr.i = alloca i32, align 4
  %__m.addr.i = alloca i32, align 4
  %.atomictmp.i = alloca i32, align 4
  %atomic-temp.i = alloca i32, align 4
  %this.addr = alloca ptr, align 8
  store ptr %this, ptr %this.addr, align 8
  %this1 = load ptr, ptr %this.addr, align 8
  %ref_count_ = getelementptr inbounds %"class.grpc_event_engine::experimental::PollEventHandle", ptr %this1, i32 0, i32 2
  store ptr %ref_count_, ptr %this.addr.i, align 8
  store i32 1, ptr %__i.addr.i, align 4
  store i32 0, ptr %__m.addr.i, align 4
  %this1.i = load ptr, ptr %this.addr.i, align 8
  %0 = load i32, ptr %__m.addr.i, align 4
  %1 = load i32, ptr %__i.addr.i, align 4
  store i32 %1, ptr %.atomictmp.i, align 4
  switch i32 %0, label %monotonic.i [
    i32 1, label %acquire.i
    i32 2, label %acquire.i
    i32 3, label %release.i
    i32 4, label %acqrel.i
    i32 5, label %seqcst.i
  ]

monotonic.i:                                      ; preds = %entry
  %2 = load i32, ptr %.atomictmp.i, align 4
  %3 = atomicrmw add ptr %this1.i, i32 %2 monotonic, align 4
  store i32 %3, ptr %atomic-temp.i, align 4
  br label %_ZNSt13__atomic_baseIiE9fetch_addEiSt12memory_order.exit

acquire.i:                                        ; preds = %entry, %entry
  %4 = load i32, ptr %.atomictmp.i, align 4
  %5 = atomicrmw add ptr %this1.i, i32 %4 acquire, align 4
  store i32 %5, ptr %atomic-temp.i, align 4
  br label %_ZNSt13__atomic_baseIiE9fetch_addEiSt12memory_order.exit

release.i:                                        ; preds = %entry
  %6 = load i32, ptr %.atomictmp.i, align 4
  %7 = atomicrmw add ptr %this1.i, i32 %6 release, align 4
  store i32 %7, ptr %atomic-temp.i, align 4
  br label %_ZNSt13__atomic_baseIiE9fetch_addEiSt12memory_order.exit

acqrel.i:                                         ; preds = %entry
  %8 = load i32, ptr %.atomictmp.i, align 4
  %9 = atomicrmw add ptr %this1.i, i32 %8 acq_rel, align 4
  store i32 %9, ptr %atomic-temp.i, align 4
  br label %_ZNSt13__atomic_baseIiE9fetch_addEiSt12memory_order.exit

seqcst.i:                                         ; preds = %entry
  %10 = load i32, ptr %.atomictmp.i, align 4
  %11 = atomicrmw add ptr %this1.i, i32 %10 seq_cst, align 4
  store i32 %11, ptr %atomic-temp.i, align 4
  br label %_ZNSt13__atomic_baseIiE9fetch_addEiSt12memory_order.exit

_ZNSt13__atomic_baseIiE9fetch_addEiSt12memory_order.exit: ; preds = %seqcst.i, %acqrel.i, %release.i, %acquire.i, %monotonic.i
  ret void
}

; Function Attrs: mustprogress uwtable
define noundef i32 @_ZN17grpc_event_engine12experimental15PollEventHandle15BeginPollLockedEjj(ptr noundef nonnull align 16 dereferenceable(200) %this, i32 noundef %read_mask, i32 noundef %write_mask) #5 align 2 {
entry:
  %retval = alloca i32, align 4
  %this.addr = alloca ptr, align 8
  %read_mask.addr = alloca i32, align 4
  %write_mask.addr = alloca i32, align 4
  %mask = alloca i32, align 4
  %read_ready = alloca i8, align 1
  %write_ready = alloca i8, align 1
  store ptr %this, ptr %this.addr, align 8
  store i32 %read_mask, ptr %read_mask.addr, align 4
  store i32 %write_mask, ptr %write_mask.addr, align 4
  %this1 = load ptr, ptr %this.addr, align 8
  store i32 0, ptr %mask, align 4
  %pending_actions_ = getelementptr inbounds %"class.grpc_event_engine::experimental::PollEventHandle", ptr %this1, i32 0, i32 4
  %0 = load i32, ptr %pending_actions_, align 8
  %conv = sext i32 %0 to i64
  %and = and i64 %conv, 1
  %tobool = icmp ne i64 %and, 0
  %frombool = zext i1 %tobool to i8
  store i8 %frombool, ptr %read_ready, align 1
  %pending_actions_2 = getelementptr inbounds %"class.grpc_event_engine::experimental::PollEventHandle", ptr %this1, i32 0, i32 4
  %1 = load i32, ptr %pending_actions_2, align 8
  %shr = ashr i32 %1, 2
  %conv3 = sext i32 %shr to i64
  %and4 = and i64 %conv3, 1
  %tobool5 = icmp ne i64 %and4, 0
  %frombool6 = zext i1 %tobool5 to i8
  store i8 %frombool6, ptr %write_ready, align 1
  call void @_ZN17grpc_event_engine12experimental15PollEventHandle3RefEv(ptr noundef nonnull align 16 dereferenceable(200) %this1)
  %is_shutdown_ = getelementptr inbounds %"class.grpc_event_engine::experimental::PollEventHandle", ptr %this1, i32 0, i32 10
  %2 = load i8, ptr %is_shutdown_, align 1
  %tobool7 = trunc i8 %2 to i1
  br i1 %tobool7, label %if.then, label %if.end

if.then:                                          ; preds = %entry
  call void @_ZN17grpc_event_engine12experimental15PollEventHandle10SetWatchedEi(ptr noundef nonnull align 16 dereferenceable(200) %this1, i32 noundef 0)
  store i32 0, ptr %retval, align 4
  br label %return

if.end:                                           ; preds = %entry
  %3 = load i32, ptr %read_mask.addr, align 4
  %tobool8 = icmp ne i32 %3, 0
  br i1 %tobool8, label %land.lhs.true, label %if.end12

land.lhs.true:                                    ; preds = %if.end
  %4 = load i8, ptr %read_ready, align 1
  %tobool9 = trunc i8 %4 to i1
  br i1 %tobool9, label %if.end12, label %land.lhs.true10

land.lhs.true10:                                  ; preds = %land.lhs.true
  %read_closure_ = getelementptr inbounds %"class.grpc_event_engine::experimental::PollEventHandle", ptr %this1, i32 0, i32 18
  %5 = load ptr, ptr %read_closure_, align 8
  %cmp = icmp ne ptr %5, inttoptr (i64 1 to ptr)
  br i1 %cmp, label %if.then11, label %if.end12

if.then11:                                        ; preds = %land.lhs.true10
  %6 = load i32, ptr %read_mask.addr, align 4
  %7 = load i32, ptr %mask, align 4
  %or = or i32 %7, %6
  store i32 %or, ptr %mask, align 4
  br label %if.end12

if.end12:                                         ; preds = %if.then11, %land.lhs.true10, %land.lhs.true, %if.end
  %8 = load i32, ptr %write_mask.addr, align 4
  %tobool13 = icmp ne i32 %8, 0
  br i1 %tobool13, label %land.lhs.true14, label %if.end20

land.lhs.true14:                                  ; preds = %if.end12
  %9 = load i8, ptr %write_ready, align 1
  %tobool15 = trunc i8 %9 to i1
  br i1 %tobool15, label %if.end20, label %land.lhs.true16

land.lhs.true16:                                  ; preds = %land.lhs.true14
  %write_closure_ = getelementptr inbounds %"class.grpc_event_engine::experimental::PollEventHandle", ptr %this1, i32 0, i32 19
  %10 = load ptr, ptr %write_closure_, align 16
  %cmp17 = icmp ne ptr %10, inttoptr (i64 1 to ptr)
  br i1 %cmp17, label %if.then18, label %if.end20

if.then18:                                        ; preds = %land.lhs.true16
  %11 = load i32, ptr %write_mask.addr, align 4
  %12 = load i32, ptr %mask, align 4
  %or19 = or i32 %12, %11
  store i32 %or19, ptr %mask, align 4
  br label %if.end20

if.end20:                                         ; preds = %if.then18, %land.lhs.true16, %land.lhs.true14, %if.end12
  %13 = load i32, ptr %mask, align 4
  call void @_ZN17grpc_event_engine12experimental15PollEventHandle10SetWatchedEi(ptr noundef nonnull align 16 dereferenceable(200) %this1, i32 noundef %13)
  %14 = load i32, ptr %mask, align 4
  store i32 %14, ptr %retval, align 4
  br label %return

return:                                           ; preds = %if.end20, %if.then
  %15 = load i32, ptr %retval, align 4
  ret i32 %15
}