; Function Attrs: mustprogress nofree norecurse nounwind willreturn memory(argmem: readwrite) uwtable
define noundef i32 @_ZN17grpc_event_engine12experimental15PollEventHandle15BeginPollLockedEjj(ptr nocapture noundef nonnull align 16 dereferenceable(200) %this, i32 noundef %read_mask, i32 noundef %write_mask) local_unnamed_addr #9 align 2 {
entry:
  %pending_actions_ = getelementptr inbounds i8, ptr %this, i64 24
  %0 = load i32, ptr %pending_actions_, align 8
  %ref_count_.i = getelementptr inbounds i8, ptr %this, i64 16
  %1 = atomicrmw add ptr %ref_count_.i, i32 1 monotonic, align 4
  %is_shutdown_ = getelementptr inbounds i8, ptr %this, i64 105
  %2 = load i8, ptr %is_shutdown_, align 1
  %3 = and i8 %2, 1
  %tobool7.not = icmp eq i8 %3, 0
  br i1 %tobool7.not, label %if.end, label %return

if.end:                                           ; preds = %entry
  %4 = and i32 %0, 4
  %tobool5.not = icmp ne i32 %4, 0
  %5 = and i32 %0, 1
  %tobool.not = icmp ne i32 %5, 0
  %tobool8.not = icmp eq i32 %read_mask, 0
  %brmerge = select i1 %tobool8.not, i1 true, i1 %tobool.not
  %read_closure_ = getelementptr inbounds i8, ptr %this, i64 184
  %6 = load ptr, ptr %read_closure_, align 8
  %cmp.not = icmp eq ptr %6, inttoptr (i64 1 to ptr)
  %or.cond = select i1 %brmerge, i1 true, i1 %cmp.not
  %mask.0 = select i1 %or.cond, i32 0, i32 %read_mask
  %tobool13.not = icmp eq i32 %write_mask, 0
  %brmerge7 = select i1 %tobool13.not, i1 true, i1 %tobool5.not
  %write_closure_ = getelementptr inbounds i8, ptr %this, i64 192
  %7 = load ptr, ptr %write_closure_, align 16
  %cmp17.not = icmp eq ptr %7, inttoptr (i64 1 to ptr)
  %or.cond8 = select i1 %brmerge7, i1 true, i1 %cmp17.not
  %or19 = select i1 %or.cond8, i32 0, i32 %write_mask
  %mask.1 = or i32 %or19, %mask.0
  br label %return

return:                                           ; preds = %entry, %if.end
  %.sink = phi i32 [ %mask.1, %if.end ], [ 0, %entry ]
  %8 = getelementptr inbounds i8, ptr %this, i64 112
  store i32 %.sink, ptr %8, align 16
  ret i32 %.sink
}